; Function Attrs: nofree nounwind uwtable
define dso_local void @geod_inverseline(ptr noundef %0, ptr noundef readonly captures(none) %1, double noundef %2, double noundef %3, double noundef %4, double noundef %5, i32 noundef %6) local_unnamed_addr #3 {
  %8 = alloca double, align 8
  %9 = alloca double, align 8
  call void @llvm.lifetime.start.p0(i64 8, ptr nonnull %8) #13
  call void @llvm.lifetime.start.p0(i64 8, ptr nonnull %9) #13
  %10 = call fastcc double @geod_geninverse_int(ptr noundef %1, double noundef %2, double noundef %3, double noundef %4, double noundef %5, ptr noundef null, ptr noundef %8, ptr noundef %9, ptr noundef null, ptr noundef null, ptr noundef null, ptr noundef null, ptr noundef null, ptr noundef null)
  %11 = load double, ptr %8, align 8, !tbaa !4
  %12 = load double, ptr %9, align 8, !tbaa !4
  %13 = tail call double @llvm.fabs.f64(double %11)
  %14 = tail call double @llvm.fabs.f64(double %12)
  %15 = fcmp ogt double %13, %14
  %.013.i = select i1 %15, double %12, double %11
  %.011.i = select i1 %15, double %11, double %12
  %.05.i = select i1 %15, i32 2, i32 0
  %16 = bitcast double %.011.i to i64
  %.112.i = tail call double @llvm.fabs.f64(double %.011.i)
  %.lobit.i = lshr i64 %16, 63
  %17 = trunc nuw nsw i64 %.lobit.i to i32
  %.1.i = or disjoint i32 %.05.i, %17
  %18 = tail call double @atan2(double noundef %.013.i, double noundef %.112.i) #13, !tbaa !16
  %19 = load double, ptr @degree, align 8, !tbaa !4
  %20 = fdiv double %18, %19
  switch i32 %.1.i, label %default.unreachable [
    i32 1, label %21
    i32 2, label %24
    i32 3, label %26
    i32 0, label %atan2dx.exit
  ]

21:                                               ; preds = %7
  %22 = tail call double @llvm.copysign.f64(double 1.800000e+02, double %.013.i)
  %23 = fsub double %22, %20
  br label %atan2dx.exit

24:                                               ; preds = %7
  %25 = fsub double 9.000000e+01, %20
  br label %atan2dx.exit

26:                                               ; preds = %7
  %27 = fadd double %20, -9.000000e+01
  br label %atan2dx.exit

default.unreachable:                              ; preds = %7
  unreachable

atan2dx.exit:                                     ; preds = %7, %21, %24, %26
  %.0.i = phi double [ %20, %7 ], [ %27, %26 ], [ %25, %24 ], [ %23, %21 ]
  %.not = icmp eq i32 %6, 0
  %28 = select i1 %.not, i32 2315, i32 %6
  %29 = and i32 %28, 2048
  %.not16 = icmp eq i32 %29, 0
  %30 = or i32 %28, 1025
  %spec.select = select i1 %.not16, i32 %28, i32 %30
  tail call fastcc void @geod_lineinit_int(ptr noundef %0, ptr noundef %1, double noundef %2, double noundef %3, double noundef %.0.i, double noundef %11, double noundef %12, i32 noundef %spec.select)
  %31 = getelementptr inbounds nuw i8, ptr %0, i64 56
  store double %10, ptr %31, align 8, !tbaa !49
  %32 = load double, ptr @NaN, align 8, !tbaa !4
  %33 = getelementptr inbounds nuw i8, ptr %0, i64 64
  store double %32, ptr %33, align 8, !tbaa !48
  %34 = tail call double @geod_genposition(ptr noundef %0, i32 noundef 1, double noundef %10, ptr noundef null, ptr noundef null, ptr noundef null, ptr noundef nonnull %33, ptr noundef null, ptr noundef null, ptr noundef null, ptr noundef null)
  call void @llvm.lifetime.end.p0(i64 8, ptr nonnull %9) #13
  call void @llvm.lifetime.end.p0(i64 8, ptr nonnull %8) #13
  ret void
}